target datalayout = "e-m:e-p270:32:32-p271:32:32-p272:64:64-i64:64-i128:128-f80:128-n8:16:32:64-S128"
target triple = "x86_64-pc-linux-gnu"

%class.Register = type { i32 }
%class.XMMRegister = type { i32 }

@_ZN19Abstract_VM_Version9_featuresE = external global i64, align 8

; Function Attrs: mustprogress nounwind uwtable
define linkonce_odr hidden noundef zeroext i1 @_ZN10VM_Version13supports_gfniEv() #1 comdat align 2 {
  %1 = load i64, ptr @_ZN19Abstract_VM_Version9_featuresE, align 8
  %2 = and i64 %1, 2251799813685248
  %3 = icmp ne i64 %2, 0
  ret i1 %3
}

; Function Attrs: mustprogress nounwind uwtable
define hidden void @_ZN17C2_MacroAssembler8reverseLE8RegisterS0_11XMMRegisterS1_S0_S0_(ptr noundef nonnull align 8 dereferenceable(40) %0, i32 %1, i32 %2, i32 %3, i32 %4, i32 %5, i32 %6) #1 align 2 {
  %8 = alloca %class.Register, align 4
  %9 = alloca %class.Register, align 4
  %10 = alloca %class.XMMRegister, align 4
  %11 = alloca %class.XMMRegister, align 4
  %12 = alloca %class.Register, align 4
  %13 = alloca %class.Register, align 4
  %14 = alloca ptr, align 8
  %15 = alloca %class.Register, align 4
  %16 = alloca %class.XMMRegister, align 4
  %17 = alloca %class.Register, align 4
  %18 = alloca %class.XMMRegister, align 4
  %19 = alloca %class.Register, align 4
  %20 = alloca %class.XMMRegister, align 4
  %21 = alloca %class.XMMRegister, align 4
  %22 = alloca %class.Register, align 4
  %23 = alloca %class.XMMRegister, align 4
  %24 = alloca %class.Register, align 4
  %25 = alloca %class.Register, align 4
  %26 = alloca %class.Register, align 4
  %27 = alloca %class.Register, align 4
  %28 = alloca %class.Register, align 4
  %29 = alloca %class.Register, align 4
  %30 = alloca %class.Register, align 4
  %31 = alloca %class.Register, align 4
  %32 = alloca %class.Register, align 4
  %33 = alloca %class.Register, align 4
  %34 = alloca %class.Register, align 4
  %35 = alloca %class.Register, align 4
  %36 = alloca %class.Register, align 4
  %37 = alloca %class.Register, align 4
  %38 = alloca %class.Register, align 4
  %39 = alloca %class.Register, align 4
  %40 = alloca %class.Register, align 4
  %41 = alloca %class.Register, align 4
  %42 = alloca %class.Register, align 4
  %43 = alloca %class.Register, align 4
  %44 = alloca %class.Register, align 4
  %45 = alloca %class.Register, align 4
  %46 = alloca %class.Register, align 4
  %47 = alloca %class.Register, align 4
  %48 = alloca %class.Register, align 4
  %49 = alloca %class.Register, align 4
  %50 = alloca %class.Register, align 4
  %51 = alloca %class.Register, align 4
  %52 = alloca %class.Register, align 4
  %53 = alloca %class.Register, align 4
  %54 = alloca %class.Register, align 4
  %55 = alloca %class.Register, align 4
  %56 = alloca %class.Register, align 4
  %57 = alloca %class.Register, align 4
  %58 = alloca %class.Register, align 4
  %59 = alloca %class.Register, align 4
  %60 = alloca %class.Register, align 4
  %61 = alloca %class.Register, align 4
  %62 = alloca %class.Register, align 4
  %63 = getelementptr inbounds %class.Register, ptr %8, i32 0, i32 0
  store i32 %1, ptr %63, align 4
  %64 = getelementptr inbounds %class.Register, ptr %9, i32 0, i32 0
  store i32 %2, ptr %64, align 4
  %65 = getelementptr inbounds %class.XMMRegister, ptr %10, i32 0, i32 0
  store i32 %3, ptr %65, align 4
  %66 = getelementptr inbounds %class.XMMRegister, ptr %11, i32 0, i32 0
  store i32 %4, ptr %66, align 4
  %67 = getelementptr inbounds %class.Register, ptr %12, i32 0, i32 0
  store i32 %5, ptr %67, align 4
  %68 = getelementptr inbounds %class.Register, ptr %13, i32 0, i32 0
  store i32 %6, ptr %68, align 4
  store ptr %0, ptr %14, align 8
  %69 = load ptr, ptr %14, align 8
  %70 = call noundef zeroext i1 @_ZN10VM_Version13supports_gfniEv()
  br i1 %70, label %71, label %90

71:                                               ; preds = %7
  call void @llvm.memcpy.p0.p0.i64(ptr align 4 %15, ptr align 4 %12, i64 4, i1 false)
  %72 = getelementptr inbounds %class.Register, ptr %15, i32 0, i32 0
  %73 = load i32, ptr %72, align 4
  call void @_ZN9Assembler5mov64E8Registerl(ptr noundef nonnull align 8 dereferenceable(40) %69, i32 %73, i64 noundef -9205322385119247871)
  call void @llvm.memcpy.p0.p0.i64(ptr align 4 %16, ptr align 4 %10, i64 4, i1 false)
  call void @llvm.memcpy.p0.p0.i64(ptr align 4 %17, ptr align 4 %9, i64 4, i1 false)
  %74 = getelementptr inbounds %class.XMMRegister, ptr %16, i32 0, i32 0
  %75 = load i32, ptr %74, align 4
  %76 = getelementptr inbounds %class.Register, ptr %17, i32 0, i32 0
  %77 = load i32, ptr %76, align 4
  call void @_ZN9Assembler4movqE11XMMRegister8Register(ptr noundef nonnull align 8 dereferenceable(40) %69, i32 %75, i32 %77)
  call void @llvm.memcpy.p0.p0.i64(ptr align 4 %18, ptr align 4 %11, i64 4, i1 false)
  call void @llvm.memcpy.p0.p0.i64(ptr align 4 %19, ptr align 4 %12, i64 4, i1 false)
  %78 = getelementptr inbounds %class.XMMRegister, ptr %18, i32 0, i32 0
  %79 = load i32, ptr %78, align 4
  %80 = getelementptr inbounds %class.Register, ptr %19, i32 0, i32 0
  %81 = load i32, ptr %80, align 4
  call void @_ZN9Assembler4movqE11XMMRegister8Register(ptr noundef nonnull align 8 dereferenceable(40) %69, i32 %79, i32 %81)
  call void @llvm.memcpy.p0.p0.i64(ptr align 4 %20, ptr align 4 %10, i64 4, i1 false)
  call void @llvm.memcpy.p0.p0.i64(ptr align 4 %21, ptr align 4 %11, i64 4, i1 false)
  %82 = getelementptr inbounds %class.XMMRegister, ptr %20, i32 0, i32 0
  %83 = load i32, ptr %82, align 4
  %84 = getelementptr inbounds %class.XMMRegister, ptr %21, i32 0, i32 0
  %85 = load i32, ptr %84, align 4
  call void @_ZN9Assembler13gf2p8affineqbE11XMMRegisterS0_i(ptr noundef nonnull align 8 dereferenceable(40) %69, i32 %83, i32 %85, i32 noundef 0)
  call void @llvm.memcpy.p0.p0.i64(ptr align 4 %22, ptr align 4 %8, i64 4, i1 false)
  call void @llvm.memcpy.p0.p0.i64(ptr align 4 %23, ptr align 4 %10, i64 4, i1 false)
  %86 = getelementptr inbounds %class.Register, ptr %22, i32 0, i32 0
  %87 = load i32, ptr %86, align 4
  %88 = getelementptr inbounds %class.XMMRegister, ptr %23, i32 0, i32 0
  %89 = load i32, ptr %88, align 4
  call void @_ZN9Assembler4movqE8Register11XMMRegister(ptr noundef nonnull align 8 dereferenceable(40) %69, i32 %87, i32 %89)
  br label %167

90:                                               ; preds = %7
  call void @llvm.memcpy.p0.p0.i64(ptr align 4 %24, ptr align 4 %12, i64 4, i1 false)
  call void @llvm.memcpy.p0.p0.i64(ptr align 4 %25, ptr align 4 %9, i64 4, i1 false)
  %91 = getelementptr inbounds %class.Register, ptr %24, i32 0, i32 0
  %92 = load i32, ptr %91, align 4
  %93 = getelementptr inbounds %class.Register, ptr %25, i32 0, i32 0
  %94 = load i32, ptr %93, align 4
  call void @_ZN9Assembler4movqE8RegisterS0_(ptr noundef nonnull align 8 dereferenceable(40) %69, i32 %92, i32 %94)
  call void @llvm.memcpy.p0.p0.i64(ptr align 4 %26, ptr align 4 %13, i64 4, i1 false)
  %95 = getelementptr inbounds %class.Register, ptr %26, i32 0, i32 0
  %96 = load i32, ptr %95, align 4
  call void @_ZN9Assembler5mov64E8Registerl(ptr noundef nonnull align 8 dereferenceable(40) %69, i32 %96, i64 noundef 6148914691236517205)
  call void @llvm.memcpy.p0.p0.i64(ptr align 4 %27, ptr align 4 %12, i64 4, i1 false)
  call void @llvm.memcpy.p0.p0.i64(ptr align 4 %28, ptr align 4 %13, i64 4, i1 false)
  %97 = getelementptr inbounds %class.Register, ptr %27, i32 0, i32 0
  %98 = load i32, ptr %97, align 4
  %99 = getelementptr inbounds %class.Register, ptr %28, i32 0, i32 0
  %100 = load i32, ptr %99, align 4
  call void @_ZN9Assembler4andqE8RegisterS0_(ptr noundef nonnull align 8 dereferenceable(40) %69, i32 %98, i32 %100)
  call void @llvm.memcpy.p0.p0.i64(ptr align 4 %29, ptr align 4 %12, i64 4, i1 false)
  %101 = getelementptr inbounds %class.Register, ptr %29, i32 0, i32 0
  %102 = load i32, ptr %101, align 4
  call void @_ZN9Assembler4shlqE8Registeri(ptr noundef nonnull align 8 dereferenceable(40) %69, i32 %102, i32 noundef 1)
  call void @llvm.memcpy.p0.p0.i64(ptr align 4 %30, ptr align 4 %8, i64 4, i1 false)
  call void @llvm.memcpy.p0.p0.i64(ptr align 4 %31, ptr align 4 %9, i64 4, i1 false)
  %103 = getelementptr inbounds %class.Register, ptr %30, i32 0, i32 0
  %104 = load i32, ptr %103, align 4
  %105 = getelementptr inbounds %class.Register, ptr %31, i32 0, i32 0
  %106 = load i32, ptr %105, align 4
  call void @_ZN9Assembler4movqE8RegisterS0_(ptr noundef nonnull align 8 dereferenceable(40) %69, i32 %104, i32 %106)
  call void @llvm.memcpy.p0.p0.i64(ptr align 4 %32, ptr align 4 %13, i64 4, i1 false)
  %107 = getelementptr inbounds %class.Register, ptr %32, i32 0, i32 0
  %108 = load i32, ptr %107, align 4
  call void @_ZN9Assembler4notqE8Register(ptr noundef nonnull align 8 dereferenceable(40) %69, i32 %108)
  call void @llvm.memcpy.p0.p0.i64(ptr align 4 %33, ptr align 4 %8, i64 4, i1 false)
  call void @llvm.memcpy.p0.p0.i64(ptr align 4 %34, ptr align 4 %13, i64 4, i1 false)
  %109 = getelementptr inbounds %class.Register, ptr %33, i32 0, i32 0
  %110 = load i32, ptr %109, align 4
  %111 = getelementptr inbounds %class.Register, ptr %34, i32 0, i32 0
  %112 = load i32, ptr %111, align 4
  call void @_ZN9Assembler4andqE8RegisterS0_(ptr noundef nonnull align 8 dereferenceable(40) %69, i32 %110, i32 %112)
  call void @llvm.memcpy.p0.p0.i64(ptr align 4 %35, ptr align 4 %8, i64 4, i1 false)
  %113 = getelementptr inbounds %class.Register, ptr %35, i32 0, i32 0
  %114 = load i32, ptr %113, align 4
  call void @_ZN9Assembler4shrqE8Registeri(ptr noundef nonnull align 8 dereferenceable(40) %69, i32 %114, i32 noundef 1)
  call void @llvm.memcpy.p0.p0.i64(ptr align 4 %36, ptr align 4 %8, i64 4, i1 false)
  call void @llvm.memcpy.p0.p0.i64(ptr align 4 %37, ptr align 4 %12, i64 4, i1 false)
  %115 = getelementptr inbounds %class.Register, ptr %36, i32 0, i32 0
  %116 = load i32, ptr %115, align 4
  %117 = getelementptr inbounds %class.Register, ptr %37, i32 0, i32 0
  %118 = load i32, ptr %117, align 4
  call void @_ZN9Assembler3orqE8RegisterS0_(ptr noundef nonnull align 8 dereferenceable(40) %69, i32 %116, i32 %118)
  call void @llvm.memcpy.p0.p0.i64(ptr align 4 %38, ptr align 4 %12, i64 4, i1 false)
  call void @llvm.memcpy.p0.p0.i64(ptr align 4 %39, ptr align 4 %8, i64 4, i1 false)
  %119 = getelementptr inbounds %class.Register, ptr %38, i32 0, i32 0
  %120 = load i32, ptr %119, align 4
  %121 = getelementptr inbounds %class.Register, ptr %39, i32 0, i32 0
  %122 = load i32, ptr %121, align 4
  call void @_ZN9Assembler4movqE8RegisterS0_(ptr noundef nonnull align 8 dereferenceable(40) %69, i32 %120, i32 %122)
  call void @llvm.memcpy.p0.p0.i64(ptr align 4 %40, ptr align 4 %13, i64 4, i1 false)
  %123 = getelementptr inbounds %class.Register, ptr %40, i32 0, i32 0
  %124 = load i32, ptr %123, align 4
  call void @_ZN9Assembler5mov64E8Registerl(ptr noundef nonnull align 8 dereferenceable(40) %69, i32 %124, i64 noundef 3689348814741910323)
  call void @llvm.memcpy.p0.p0.i64(ptr align 4 %41, ptr align 4 %12, i64 4, i1 false)
  call void @llvm.memcpy.p0.p0.i64(ptr align 4 %42, ptr align 4 %13, i64 4, i1 false)
  %125 = getelementptr inbounds %class.Register, ptr %41, i32 0, i32 0
  %126 = load i32, ptr %125, align 4
  %127 = getelementptr inbounds %class.Register, ptr %42, i32 0, i32 0
  %128 = load i32, ptr %127, align 4
  call void @_ZN9Assembler4andqE8RegisterS0_(ptr noundef nonnull align 8 dereferenceable(40) %69, i32 %126, i32 %128)
  call void @llvm.memcpy.p0.p0.i64(ptr align 4 %43, ptr align 4 %12, i64 4, i1 false)
  %129 = getelementptr inbounds %class.Register, ptr %43, i32 0, i32 0
  %130 = load i32, ptr %129, align 4
  call void @_ZN9Assembler4shlqE8Registeri(ptr noundef nonnull align 8 dereferenceable(40) %69, i32 %130, i32 noundef 2)
  call void @llvm.memcpy.p0.p0.i64(ptr align 4 %44, ptr align 4 %13, i64 4, i1 false)
  %131 = getelementptr inbounds %class.Register, ptr %44, i32 0, i32 0
  %132 = load i32, ptr %131, align 4
  call void @_ZN9Assembler4notqE8Register(ptr noundef nonnull align 8 dereferenceable(40) %69, i32 %132)
  call void @llvm.memcpy.p0.p0.i64(ptr align 4 %45, ptr align 4 %8, i64 4, i1 false)
  call void @llvm.memcpy.p0.p0.i64(ptr align 4 %46, ptr align 4 %13, i64 4, i1 false)
  %133 = getelementptr inbounds %class.Register, ptr %45, i32 0, i32 0
  %134 = load i32, ptr %133, align 4
  %135 = getelementptr inbounds %class.Register, ptr %46, i32 0, i32 0
  %136 = load i32, ptr %135, align 4
  call void @_ZN9Assembler4andqE8RegisterS0_(ptr noundef nonnull align 8 dereferenceable(40) %69, i32 %134, i32 %136)
  call void @llvm.memcpy.p0.p0.i64(ptr align 4 %47, ptr align 4 %8, i64 4, i1 false)
  %137 = getelementptr inbounds %class.Register, ptr %47, i32 0, i32 0
  %138 = load i32, ptr %137, align 4
  call void @_ZN9Assembler4shrqE8Registeri(ptr noundef nonnull align 8 dereferenceable(40) %69, i32 %138, i32 noundef 2)
  call void @llvm.memcpy.p0.p0.i64(ptr align 4 %48, ptr align 4 %8, i64 4, i1 false)
  call void @llvm.memcpy.p0.p0.i64(ptr align 4 %49, ptr align 4 %12, i64 4, i1 false)
  %139 = getelementptr inbounds %class.Register, ptr %48, i32 0, i32 0
  %140 = load i32, ptr %139, align 4
  %141 = getelementptr inbounds %class.Register, ptr %49, i32 0, i32 0
  %142 = load i32, ptr %141, align 4
  call void @_ZN9Assembler3orqE8RegisterS0_(ptr noundef nonnull align 8 dereferenceable(40) %69, i32 %140, i32 %142)
  call void @llvm.memcpy.p0.p0.i64(ptr align 4 %50, ptr align 4 %12, i64 4, i1 false)
  call void @llvm.memcpy.p0.p0.i64(ptr align 4 %51, ptr align 4 %8, i64 4, i1 false)
  %143 = getelementptr inbounds %class.Register, ptr %50, i32 0, i32 0
  %144 = load i32, ptr %143, align 4
  %145 = getelementptr inbounds %class.Register, ptr %51, i32 0, i32 0
  %146 = load i32, ptr %145, align 4
  call void @_ZN9Assembler4movqE8RegisterS0_(ptr noundef nonnull align 8 dereferenceable(40) %69, i32 %144, i32 %146)
  call void @llvm.memcpy.p0.p0.i64(ptr align 4 %52, ptr align 4 %13, i64 4, i1 false)
  %147 = getelementptr inbounds %class.Register, ptr %52, i32 0, i32 0
  %148 = load i32, ptr %147, align 4
  call void @_ZN9Assembler5mov64E8Registerl(ptr noundef nonnull align 8 dereferenceable(40) %69, i32 %148, i64 noundef 1085102592571150095)
  call void @llvm.memcpy.p0.p0.i64(ptr align 4 %53, ptr align 4 %12, i64 4, i1 false)
  call void @llvm.memcpy.p0.p0.i64(ptr align 4 %54, ptr align 4 %13, i64 4, i1 false)
  %149 = getelementptr inbounds %class.Register, ptr %53, i32 0, i32 0
  %150 = load i32, ptr %149, align 4
  %151 = getelementptr inbounds %class.Register, ptr %54, i32 0, i32 0
  %152 = load i32, ptr %151, align 4
  call void @_ZN9Assembler4andqE8RegisterS0_(ptr noundef nonnull align 8 dereferenceable(40) %69, i32 %150, i32 %152)
  call void @llvm.memcpy.p0.p0.i64(ptr align 4 %55, ptr align 4 %12, i64 4, i1 false)
  %153 = getelementptr inbounds %class.Register, ptr %55, i32 0, i32 0
  %154 = load i32, ptr %153, align 4
  call void @_ZN9Assembler4shlqE8Registeri(ptr noundef nonnull align 8 dereferenceable(40) %69, i32 %154, i32 noundef 4)
  call void @llvm.memcpy.p0.p0.i64(ptr align 4 %56, ptr align 4 %13, i64 4, i1 false)
  %155 = getelementptr inbounds %class.Register, ptr %56, i32 0, i32 0
  %156 = load i32, ptr %155, align 4
  call void @_ZN9Assembler4notqE8Register(ptr noundef nonnull align 8 dereferenceable(40) %69, i32 %156)
  call void @llvm.memcpy.p0.p0.i64(ptr align 4 %57, ptr align 4 %8, i64 4, i1 false)
  call void @llvm.memcpy.p0.p0.i64(ptr align 4 %58, ptr align 4 %13, i64 4, i1 false)
  %157 = getelementptr inbounds %class.Register, ptr %57, i32 0, i32 0
  %158 = load i32, ptr %157, align 4
  %159 = getelementptr inbounds %class.Register, ptr %58, i32 0, i32 0
  %160 = load i32, ptr %159, align 4
  call void @_ZN9Assembler4andqE8RegisterS0_(ptr noundef nonnull align 8 dereferenceable(40) %69, i32 %158, i32 %160)
  call void @llvm.memcpy.p0.p0.i64(ptr align 4 %59, ptr align 4 %8, i64 4, i1 false)
  %161 = getelementptr inbounds %class.Register, ptr %59, i32 0, i32 0
  %162 = load i32, ptr %161, align 4
  call void @_ZN9Assembler4shrqE8Registeri(ptr noundef nonnull align 8 dereferenceable(40) %69, i32 %162, i32 noundef 4)
  call void @llvm.memcpy.p0.p0.i64(ptr align 4 %60, ptr align 4 %8, i64 4, i1 false)
  call void @llvm.memcpy.p0.p0.i64(ptr align 4 %61, ptr align 4 %12, i64 4, i1 false)
  %163 = getelementptr inbounds %class.Register, ptr %60, i32 0, i32 0
  %164 = load i32, ptr %163, align 4
  %165 = getelementptr inbounds %class.Register, ptr %61, i32 0, i32 0
  %166 = load i32, ptr %165, align 4
  call void @_ZN9Assembler3orqE8RegisterS0_(ptr noundef nonnull align 8 dereferenceable(40) %69, i32 %164, i32 %166)
  br label %167

167:                                              ; preds = %90, %71
  call void @llvm.memcpy.p0.p0.i64(ptr align 4 %62, ptr align 4 %8, i64 4, i1 false)
  %168 = getelementptr inbounds %class.Register, ptr %62, i32 0, i32 0
  %169 = load i32, ptr %168, align 4
  call void @_ZN9Assembler6bswapqE8Register(ptr noundef nonnull align 8 dereferenceable(40) %69, i32 %169)
  ret void
}