; Function Attrs: mustprogress nounwind uwtable
define hidden void @_ZN17C2_MacroAssembler8reverseLE8RegisterS0_11XMMRegisterS1_S0_S0_(ptr noundef nonnull align 8 dereferenceable(40) %0, i32 %1, i32 %2, i32 %3, i32 %4, i32 %5, i32 %6) local_unnamed_addr #0 align 2 {
  %8 = load i64, ptr @_ZN19Abstract_VM_Version9_featuresE, align 8
  %9 = and i64 %8, 2251799813685248
  %.not = icmp eq i64 %9, 0
  br i1 %.not, label %11, label %10

10:                                               ; preds = %7
  tail call void @_ZN9Assembler5mov64E8Registerl(ptr noundef nonnull align 8 dereferenceable(40) %0, i32 %5, i64 noundef -9205322385119247871) #11
  tail call void @_ZN9Assembler4movqE11XMMRegister8Register(ptr noundef nonnull align 8 dereferenceable(40) %0, i32 %3, i32 %2) #11
  tail call void @_ZN9Assembler4movqE11XMMRegister8Register(ptr noundef nonnull align 8 dereferenceable(40) %0, i32 %4, i32 %5) #11
  tail call void @_ZN9Assembler13gf2p8affineqbE11XMMRegisterS0_i(ptr noundef nonnull align 8 dereferenceable(40) %0, i32 %3, i32 %4, i32 noundef 0) #11
  tail call void @_ZN9Assembler4movqE8Register11XMMRegister(ptr noundef nonnull align 8 dereferenceable(40) %0, i32 %1, i32 %3) #11
  br label %12

11:                                               ; preds = %7
  tail call void @_ZN9Assembler4movqE8RegisterS0_(ptr noundef nonnull align 8 dereferenceable(40) %0, i32 %5, i32 %2) #11
  tail call void @_ZN9Assembler5mov64E8Registerl(ptr noundef nonnull align 8 dereferenceable(40) %0, i32 %6, i64 noundef 6148914691236517205) #11
  tail call void @_ZN9Assembler4andqE8RegisterS0_(ptr noundef nonnull align 8 dereferenceable(40) %0, i32 %5, i32 %6) #11
  tail call void @_ZN9Assembler4shlqE8Registeri(ptr noundef nonnull align 8 dereferenceable(40) %0, i32 %5, i32 noundef 1) #11
  tail call void @_ZN9Assembler4movqE8RegisterS0_(ptr noundef nonnull align 8 dereferenceable(40) %0, i32 %1, i32 %2) #11
  tail call void @_ZN9Assembler4notqE8Register(ptr noundef nonnull align 8 dereferenceable(40) %0, i32 %6) #11
  tail call void @_ZN9Assembler4andqE8RegisterS0_(ptr noundef nonnull align 8 dereferenceable(40) %0, i32 %1, i32 %6) #11
  tail call void @_ZN9Assembler4shrqE8Registeri(ptr noundef nonnull align 8 dereferenceable(40) %0, i32 %1, i32 noundef 1) #11
  tail call void @_ZN9Assembler3orqE8RegisterS0_(ptr noundef nonnull align 8 dereferenceable(40) %0, i32 %1, i32 %5) #11
  tail call void @_ZN9Assembler4movqE8RegisterS0_(ptr noundef nonnull align 8 dereferenceable(40) %0, i32 %5, i32 %1) #11
  tail call void @_ZN9Assembler5mov64E8Registerl(ptr noundef nonnull align 8 dereferenceable(40) %0, i32 %6, i64 noundef 3689348814741910323) #11
  tail call void @_ZN9Assembler4andqE8RegisterS0_(ptr noundef nonnull align 8 dereferenceable(40) %0, i32 %5, i32 %6) #11
  tail call void @_ZN9Assembler4shlqE8Registeri(ptr noundef nonnull align 8 dereferenceable(40) %0, i32 %5, i32 noundef 2) #11
  tail call void @_ZN9Assembler4notqE8Register(ptr noundef nonnull align 8 dereferenceable(40) %0, i32 %6) #11
  tail call void @_ZN9Assembler4andqE8RegisterS0_(ptr noundef nonnull align 8 dereferenceable(40) %0, i32 %1, i32 %6) #11
  tail call void @_ZN9Assembler4shrqE8Registeri(ptr noundef nonnull align 8 dereferenceable(40) %0, i32 %1, i32 noundef 2) #11
  tail call void @_ZN9Assembler3orqE8RegisterS0_(ptr noundef nonnull align 8 dereferenceable(40) %0, i32 %1, i32 %5) #11
  tail call void @_ZN9Assembler4movqE8RegisterS0_(ptr noundef nonnull align 8 dereferenceable(40) %0, i32 %5, i32 %1) #11
  tail call void @_ZN9Assembler5mov64E8Registerl(ptr noundef nonnull align 8 dereferenceable(40) %0, i32 %6, i64 noundef 1085102592571150095) #11
  tail call void @_ZN9Assembler4andqE8RegisterS0_(ptr noundef nonnull align 8 dereferenceable(40) %0, i32 %5, i32 %6) #11
  tail call void @_ZN9Assembler4shlqE8Registeri(ptr noundef nonnull align 8 dereferenceable(40) %0, i32 %5, i32 noundef 4) #11
  tail call void @_ZN9Assembler4notqE8Register(ptr noundef nonnull align 8 dereferenceable(40) %0, i32 %6) #11
  tail call void @_ZN9Assembler4andqE8RegisterS0_(ptr noundef nonnull align 8 dereferenceable(40) %0, i32 %1, i32 %6) #11
  tail call void @_ZN9Assembler4shrqE8Registeri(ptr noundef nonnull align 8 dereferenceable(40) %0, i32 %1, i32 noundef 4) #11
  tail call void @_ZN9Assembler3orqE8RegisterS0_(ptr noundef nonnull align 8 dereferenceable(40) %0, i32 %1, i32 %5) #11
  br label %12

12:                                               ; preds = %11, %10
  tail call void @_ZN9Assembler6bswapqE8Register(ptr noundef nonnull align 8 dereferenceable(40) %0, i32 %1) #11
  ret void
}